; Function Attrs: nounwind uwtable
define noalias nonnull ptr @l_Lean_PrettyPrinter_format___lambda__1___boxed(ptr noundef %0, ptr noundef %1, ptr noundef %2, ptr noundef %3, ptr noundef %4) #0 {
  tail call void @lean_inc_heartbeat() #6
  %6 = tail call noalias ptr @mi_malloc_small(i64 noundef 24) #6
  %7 = icmp eq ptr %6, null
  br i1 %7, label %8, label %lean_alloc_ctor.exit.i

8:                                                ; preds = %5
  tail call void @lean_internal_panic_out_of_memory() #7
  unreachable

lean_alloc_ctor.exit.i:                           ; preds = %5
  %9 = getelementptr inbounds nuw i8, ptr %6, i64 4
  %10 = getelementptr inbounds nuw i8, ptr %6, i64 16
  store i64 1, ptr %10, align 8, !tbaa !13
  store i32 1, ptr %6, align 4, !tbaa !8
  store i32 100728856, ptr %9, align 4
  %11 = getelementptr inbounds nuw i8, ptr %6, i64 8
  store ptr %0, ptr %11, align 8, !tbaa !4
  tail call void @lean_inc_heartbeat() #6
  %12 = tail call noalias ptr @mi_malloc_small(i64 noundef 24) #6
  %13 = icmp eq ptr %12, null
  br i1 %13, label %14, label %l_Lean_PrettyPrinter_format___lambda__1.exit

14:                                               ; preds = %lean_alloc_ctor.exit.i
  tail call void @lean_internal_panic_out_of_memory() #7
  unreachable

l_Lean_PrettyPrinter_format___lambda__1.exit:     ; preds = %lean_alloc_ctor.exit.i
  %15 = getelementptr inbounds nuw i8, ptr %12, i64 4
  store i32 1, ptr %12, align 4, !tbaa !8
  store i32 131096, ptr %15, align 4
  %16 = getelementptr inbounds nuw i8, ptr %12, i64 8
  store ptr %6, ptr %16, align 8, !tbaa !4
  %17 = getelementptr inbounds nuw i8, ptr %12, i64 16
  store ptr %4, ptr %17, align 8, !tbaa !4
  %18 = ptrtoint ptr %3 to i64
  %19 = and i64 %18, 1
  %.not = icmp eq i64 %19, 0
  br i1 %.not, label %20, label %lean_dec.exit10

20:                                               ; preds = %l_Lean_PrettyPrinter_format___lambda__1.exit
  %21 = load i32, ptr %3, align 4, !tbaa !8
  %22 = icmp sgt i32 %21, 1
  br i1 %22, label %23, label %25, !prof !11

23:                                               ; preds = %20
  %24 = add nsw i32 %21, -1
  store i32 %24, ptr %3, align 4, !tbaa !8
  br label %lean_dec.exit10

25:                                               ; preds = %20
  %.not.i = icmp eq i32 %21, 0
  br i1 %.not.i, label %lean_dec.exit10, label %26

26:                                               ; preds = %25
  tail call void @lean_dec_ref_cold(ptr noundef nonnull %3) #6
  br label %lean_dec.exit10

lean_dec.exit10:                                  ; preds = %26, %25, %23, %l_Lean_PrettyPrinter_format___lambda__1.exit
  %27 = ptrtoint ptr %2 to i64
  %28 = and i64 %27, 1
  %.not15 = icmp eq i64 %28, 0
  br i1 %.not15, label %29, label %lean_dec.exit9

29:                                               ; preds = %lean_dec.exit10
  %30 = load i32, ptr %2, align 4, !tbaa !8
  %31 = icmp sgt i32 %30, 1
  br i1 %31, label %32, label %34, !prof !11

32:                                               ; preds = %29
  %33 = add nsw i32 %30, -1
  store i32 %33, ptr %2, align 4, !tbaa !8
  br label %lean_dec.exit9

34:                                               ; preds = %29
  %.not.i11 = icmp eq i32 %30, 0
  br i1 %.not.i11, label %lean_dec.exit9, label %35

35:                                               ; preds = %34
  tail call void @lean_dec_ref_cold(ptr noundef nonnull %2) #6
  br label %lean_dec.exit9

lean_dec.exit9:                                   ; preds = %35, %34, %32, %lean_dec.exit10
  %36 = ptrtoint ptr %1 to i64
  %37 = and i64 %36, 1
  %.not16 = icmp eq i64 %37, 0
  br i1 %.not16, label %38, label %lean_dec.exit

38:                                               ; preds = %lean_dec.exit9
  %39 = load i32, ptr %1, align 4, !tbaa !8
  %40 = icmp sgt i32 %39, 1
  br i1 %40, label %41, label %43, !prof !11

41:                                               ; preds = %38
  %42 = add nsw i32 %39, -1
  store i32 %42, ptr %1, align 4, !tbaa !8
  br label %lean_dec.exit

43:                                               ; preds = %38
  %.not.i13 = icmp eq i32 %39, 0
  br i1 %.not.i13, label %lean_dec.exit, label %44

44:                                               ; preds = %43
  tail call void @lean_dec_ref_cold(ptr noundef nonnull %1) #6
  br label %lean_dec.exit

lean_dec.exit:                                    ; preds = %44, %43, %41, %lean_dec.exit9
  ret ptr %12
}